target datalayout = "e-m:e-p270:32:32-p271:32:32-p272:64:64-i64:64-i128:128-f80:128-n8:16:32:64-S128"
target triple = "x86_64-unknown-linux-gnu"

%struct.ESPState = type { %struct.DeviceState, [16 x i8], [16 x i8], ptr, ptr, i8, i8, i32, i32, i32, %struct.Fifo8, %struct.SCSIBus, ptr, ptr, %struct.Fifo8, i8, i8, i32, i8, i8, i32, i32, ptr, ptr, ptr, ptr, ptr, i8, i8, i32, i32, i8, i32, i32, [16 x i8], [32 x i8], i32 }
%struct.DeviceState = type { %struct.Object, ptr, ptr, i8, i8, i64, ptr, i32, i8, ptr, %struct.NamedGPIOListHead, %struct.NamedClockListHead, %struct.BusStateHead, i32, i32, i32, %struct.ResettableState, ptr, %struct.MemReentrancyGuard }
%struct.Object = type { ptr, ptr, ptr, i32, ptr }
%struct.NamedGPIOListHead = type { ptr }
%struct.NamedClockListHead = type { ptr }
%struct.BusStateHead = type { ptr }
%struct.ResettableState = type { i32, i8, i8 }
%struct.MemReentrancyGuard = type { i8 }
%struct.SCSIBus = type { %struct.BusState, i32, %struct.SCSISense, ptr, i32 }
%struct.BusState = type { %struct.Object, ptr, ptr, ptr, i32, i8, i8, i32, %union.BusChildHead, %struct.BusStateEntry, %struct.ResettableState }
%union.BusChildHead = type { %struct.QTailQLink }
%struct.QTailQLink = type { ptr, ptr }
%struct.BusStateEntry = type { ptr, ptr }
%struct.SCSISense = type { i8, i8, i8 }
%struct.Fifo8 = type { ptr, i32, i32, i32 }
%struct.timeval = type { i64, i64 }
%struct.SysBusESPState = type { %struct.SysBusDevice, %struct.MemoryRegion, %struct.MemoryRegion, i32, %struct.ESPState }
%struct.SysBusDevice = type { %struct.DeviceState, i32, [32 x %struct.anon.1], i32, [32 x i32] }
%struct.anon.1 = type { i64, ptr }
%struct.MemoryRegion = type { %struct.Object, i8, i8, i8, i8, i8, i8, i8, i8, i8, i8, ptr, ptr, ptr, ptr, ptr, ptr, i32, i128, i64, ptr, i64, i8, i8, i8, i8, i8, ptr, i64, i32, %union.anon.2, %union.anon.3, %union.anon.4, ptr, i32, ptr, ptr, i8 }
%union.anon.2 = type { %struct.QTailQLink }
%union.anon.3 = type { %struct.QTailQLink }
%union.anon.4 = type { %struct.QTailQLink }

@.str.3 = private unnamed_addr constant [4 x i8] c"esp\00", align 1
@trace_events_enabled_count = external global i32, align 4
@message_with_timestamp = external global i8, align 1
@qemu_loglevel = external global i32, align 4
@.str.104 = private unnamed_addr constant [100 x i8] c"/home/dtcxzyw/WorkSpace/Projects/compilers/llvm-opt-benchmark/bench/qemu/qemu/include/hw/scsi/esp.h\00", align 1
@__func__.ESP = private unnamed_addr constant [4 x i8] c"ESP\00", align 1
@_TRACE_ESP_PDMA_WRITE_DSTATE = external global i16, align 2
@.str.117 = private unnamed_addr constant [49 x i8] c"%d@%zu.%06zu:esp_pdma_write pDMA write %u bytes\0A\00", align 1
@.str.118 = private unnamed_addr constant [36 x i8] c"esp_pdma_write pDMA write %u bytes\0A\00", align 1

; Function Attrs: nounwind sspstrong uwtable
define internal zeroext i1 @qemu_loglevel_mask(i32 noundef %mask) #0 {
entry:
  %mask.addr = alloca i32, align 4
  store i32 %mask, ptr %mask.addr, align 4
  %0 = load i32, ptr @qemu_loglevel, align 4
  %1 = load i32, ptr %mask.addr, align 4
  %and = and i32 %0, %1
  %cmp = icmp ne i32 %and, 0
  ret i1 %cmp
}

; Function Attrs: nounwind sspstrong uwtable
define internal void @esp_set_tc(ptr noundef %s, i32 noundef %dmalen) #0 {
entry:
  %s.addr = alloca ptr, align 8
  %dmalen.addr = alloca i32, align 4
  store ptr %s, ptr %s.addr, align 8
  store i32 %dmalen, ptr %dmalen.addr, align 4
  %0 = load i32, ptr %dmalen.addr, align 4
  %conv = trunc i32 %0 to i8
  %1 = load ptr, ptr %s.addr, align 8
  %rregs = getelementptr inbounds %struct.ESPState, ptr %1, i32 0, i32 1
  %arrayidx = getelementptr [16 x i8], ptr %rregs, i64 0, i64 0
  store i8 %conv, ptr %arrayidx, align 8
  %2 = load i32, ptr %dmalen.addr, align 4
  %shr = lshr i32 %2, 8
  %conv1 = trunc i32 %shr to i8
  %3 = load ptr, ptr %s.addr, align 8
  %rregs2 = getelementptr inbounds %struct.ESPState, ptr %3, i32 0, i32 1
  %arrayidx3 = getelementptr [16 x i8], ptr %rregs2, i64 0, i64 1
  store i8 %conv1, ptr %arrayidx3, align 1
  %4 = load i32, ptr %dmalen.addr, align 4
  %shr4 = lshr i32 %4, 16
  %conv5 = trunc i32 %shr4 to i8
  %5 = load ptr, ptr %s.addr, align 8
  %rregs6 = getelementptr inbounds %struct.ESPState, ptr %5, i32 0, i32 1
  %arrayidx7 = getelementptr [16 x i8], ptr %rregs6, i64 0, i64 14
  store i8 %conv5, ptr %arrayidx7, align 2
  ret void
}

; Function Attrs: nounwind sspstrong uwtable
define internal i32 @esp_get_tc(ptr noundef %s) #0 {
entry:
  %s.addr = alloca ptr, align 8
  %dmalen = alloca i32, align 4
  store ptr %s, ptr %s.addr, align 8
  %0 = load ptr, ptr %s.addr, align 8
  %rregs = getelementptr inbounds %struct.ESPState, ptr %0, i32 0, i32 1
  %arrayidx = getelementptr [16 x i8], ptr %rregs, i64 0, i64 0
  %1 = load i8, ptr %arrayidx, align 8
  %conv = zext i8 %1 to i32
  store i32 %conv, ptr %dmalen, align 4
  %2 = load ptr, ptr %s.addr, align 8
  %rregs1 = getelementptr inbounds %struct.ESPState, ptr %2, i32 0, i32 1
  %arrayidx2 = getelementptr [16 x i8], ptr %rregs1, i64 0, i64 1
  %3 = load i8, ptr %arrayidx2, align 1
  %conv3 = zext i8 %3 to i32
  %shl = shl i32 %conv3, 8
  %4 = load i32, ptr %dmalen, align 4
  %or = or i32 %4, %shl
  store i32 %or, ptr %dmalen, align 4
  %5 = load ptr, ptr %s.addr, align 8
  %rregs4 = getelementptr inbounds %struct.ESPState, ptr %5, i32 0, i32 1
  %arrayidx5 = getelementptr [16 x i8], ptr %rregs4, i64 0, i64 14
  %6 = load i8, ptr %arrayidx5, align 2
  %conv6 = zext i8 %6 to i32
  %shl7 = shl i32 %conv6, 16
  %7 = load i32, ptr %dmalen, align 4
  %or8 = or i32 %7, %shl7
  store i32 %or8, ptr %dmalen, align 4
  %8 = load i32, ptr %dmalen, align 4
  ret i32 %8
}

; Function Attrs: nounwind sspstrong uwtable
define internal void @_nocheck__trace_esp_pdma_write(i32 noundef %size) #0 {
entry:
  %size.addr = alloca i32, align 4
  %_now = alloca %struct.timeval, align 8
  store i32 %size, ptr %size.addr, align 4
  %0 = load i32, ptr @trace_events_enabled_count, align 4
  %tobool = icmp ne i32 %0, 0
  %lnot = xor i1 %tobool, true
  %lnot1 = xor i1 %lnot, true
  %lnot.ext = zext i1 %lnot1 to i32
  %conv = sext i32 %lnot.ext to i64
  %tobool2 = icmp ne i64 %conv, 0
  br i1 %tobool2, label %land.lhs.true, label %if.end11

land.lhs.true:                                    ; preds = %entry
  %1 = load i16, ptr @_TRACE_ESP_PDMA_WRITE_DSTATE, align 2
  %conv3 = zext i16 %1 to i32
  %tobool4 = icmp ne i32 %conv3, 0
  br i1 %tobool4, label %land.lhs.true5, label %if.end11

land.lhs.true5:                                   ; preds = %land.lhs.true
  %call = call zeroext i1 @qemu_loglevel_mask(i32 noundef 32768)
  br i1 %call, label %if.then, label %if.end11

if.then:                                          ; preds = %land.lhs.true5
  %2 = load i8, ptr @message_with_timestamp, align 1
  %tobool7 = trunc i8 %2 to i1
  br i1 %tobool7, label %if.then8, label %if.else

if.then8:                                         ; preds = %if.then
  %call9 = call i32 @gettimeofday(ptr noundef %_now, ptr noundef null) #8
  %call10 = call i32 @qemu_get_thread_id()
  %tv_sec = getelementptr inbounds %struct.timeval, ptr %_now, i32 0, i32 0
  %3 = load i64, ptr %tv_sec, align 8
  %tv_usec = getelementptr inbounds %struct.timeval, ptr %_now, i32 0, i32 1
  %4 = load i64, ptr %tv_usec, align 8
  %5 = load i32, ptr %size.addr, align 4
  call void (ptr, ...) @qemu_log(ptr noundef @.str.117, i32 noundef %call10, i64 noundef %3, i64 noundef %4, i32 noundef %5)
  br label %if.end

if.else:                                          ; preds = %if.then
  %6 = load i32, ptr %size.addr, align 4
  call void (ptr, ...) @qemu_log(ptr noundef @.str.118, i32 noundef %6)
  br label %if.end

if.end:                                           ; preds = %if.else, %if.then8
  br label %if.end11

if.end11:                                         ; preds = %if.end, %land.lhs.true5, %land.lhs.true, %entry
  ret void
}

; Function Attrs: nounwind sspstrong uwtable
define internal void @esp_pdma_write(ptr noundef %s, i8 noundef zeroext %val) #0 {
entry:
  %s.addr = alloca ptr, align 8
  %val.addr = alloca i8, align 1
  %dmalen = alloca i32, align 4
  store ptr %s, ptr %s.addr, align 8
  store i8 %val, ptr %val.addr, align 1
  %0 = load ptr, ptr %s.addr, align 8
  %call = call i32 @esp_get_tc(ptr noundef %0)
  store i32 %call, ptr %dmalen, align 4
  %1 = load i32, ptr %dmalen, align 4
  %cmp = icmp eq i32 %1, 0
  br i1 %cmp, label %if.then, label %if.end

if.then:                                          ; preds = %entry
  br label %return

if.end:                                           ; preds = %entry
  %2 = load ptr, ptr %s.addr, align 8
  %do_cmd = getelementptr inbounds %struct.ESPState, ptr %2, i32 0, i32 17
  %3 = load i32, ptr %do_cmd, align 4
  %tobool = icmp ne i32 %3, 0
  br i1 %tobool, label %if.then1, label %if.else

if.then1:                                         ; preds = %if.end
  %4 = load ptr, ptr %s.addr, align 8
  %cmdfifo = getelementptr inbounds %struct.ESPState, ptr %4, i32 0, i32 14
  %5 = load i8, ptr %val.addr, align 1
  call void @esp_fifo_push(ptr noundef %cmdfifo, i8 noundef zeroext %5)
  br label %if.end2

if.else:                                          ; preds = %if.end
  %6 = load ptr, ptr %s.addr, align 8
  %fifo = getelementptr inbounds %struct.ESPState, ptr %6, i32 0, i32 10
  %7 = load i8, ptr %val.addr, align 1
  call void @esp_fifo_push(ptr noundef %fifo, i8 noundef zeroext %7)
  br label %if.end2

if.end2:                                          ; preds = %if.else, %if.then1
  %8 = load i32, ptr %dmalen, align 4
  %dec = add i32 %8, -1
  store i32 %dec, ptr %dmalen, align 4
  %9 = load ptr, ptr %s.addr, align 8
  %10 = load i32, ptr %dmalen, align 4
  call void @esp_set_tc(ptr noundef %9, i32 noundef %10)
  br label %return

return:                                           ; preds = %if.end2, %if.then
  ret void
}

; Function Attrs: nounwind sspstrong uwtable
define internal void @trace_esp_pdma_write(i32 noundef %size) #0 {
entry:
  %size.addr = alloca i32, align 4
  store i32 %size, ptr %size.addr, align 4
  %0 = load i32, ptr %size.addr, align 4
  call void @_nocheck__trace_esp_pdma_write(i32 noundef %0)
  ret void
}

; Function Attrs: nounwind sspstrong uwtable
define internal ptr @ESP(ptr noundef %obj) #0 {
entry:
  %obj.addr = alloca ptr, align 8
  store ptr %obj, ptr %obj.addr, align 8
  %0 = load ptr, ptr %obj.addr, align 8
  %call = call ptr @object_dynamic_cast_assert(ptr noundef %0, ptr noundef @.str.3, ptr noundef @.str.104, i32 noundef 20, ptr noundef @__func__.ESP)
  ret ptr %call
}

; Function Attrs: nounwind sspstrong uwtable
define internal void @sysbus_esp_pdma_write(ptr noundef %opaque, i64 noundef %addr, i64 noundef %val, i32 noundef %size) #0 {
entry:
  %opaque.addr = alloca ptr, align 8
  %addr.addr = alloca i64, align 8
  %val.addr = alloca i64, align 8
  %size.addr = alloca i32, align 4
  %sysbus = alloca ptr, align 8
  %s = alloca ptr, align 8
  store ptr %opaque, ptr %opaque.addr, align 8
  store i64 %addr, ptr %addr.addr, align 8
  store i64 %val, ptr %val.addr, align 8
  store i32 %size, ptr %size.addr, align 4
  %0 = load ptr, ptr %opaque.addr, align 8
  store ptr %0, ptr %sysbus, align 8
  %1 = load ptr, ptr %sysbus, align 8
  %esp = getelementptr inbounds %struct.SysBusESPState, ptr %1, i32 0, i32 4
  %call = call ptr @ESP(ptr noundef %esp)
  store ptr %call, ptr %s, align 8
  %2 = load i32, ptr %size.addr, align 4
  call void @trace_esp_pdma_write(i32 noundef %2)
  %3 = load i32, ptr %size.addr, align 4
  switch i32 %3, label %sw.epilog [
    i32 1, label %sw.bb
    i32 2, label %sw.bb1
  ]

sw.bb:                                            ; preds = %entry
  %4 = load ptr, ptr %s, align 8
  %5 = load i64, ptr %val.addr, align 8
  %conv = trunc i64 %5 to i8
  call void @esp_pdma_write(ptr noundef %4, i8 noundef zeroext %conv)
  br label %sw.epilog

sw.bb1:                                           ; preds = %entry
  %6 = load ptr, ptr %s, align 8
  %7 = load i64, ptr %val.addr, align 8
  %shr = lshr i64 %7, 8
  %conv2 = trunc i64 %shr to i8
  call void @esp_pdma_write(ptr noundef %6, i8 noundef zeroext %conv2)
  %8 = load ptr, ptr %s, align 8
  %9 = load i64, ptr %val.addr, align 8
  %conv3 = trunc i64 %9 to i8
  call void @esp_pdma_write(ptr noundef %8, i8 noundef zeroext %conv3)
  br label %sw.epilog

sw.epilog:                                        ; preds = %sw.bb1, %sw.bb, %entry
  %10 = load ptr, ptr %s, align 8
  call void @esp_pdma_cb(ptr noundef %10)
  ret void
}