; Function Attrs: nounwind sspstrong uwtable
define internal void @sysbus_esp_pdma_write(ptr noundef %opaque, i64 %addr, i64 noundef %val, i32 noundef %size) #0 {
entry:
  %_now.i.i = alloca %struct.timeval, align 8
  %esp = getelementptr inbounds nuw i8, ptr %opaque, i64 1368
  %call.i = tail call ptr @object_dynamic_cast_assert(ptr noundef nonnull %esp, ptr noundef nonnull @.str.3, ptr noundef nonnull @.str.104, i32 noundef 20, ptr noundef nonnull @__func__.ESP) #10
  call void @llvm.lifetime.start.p0(i64 16, ptr nonnull %_now.i.i)
  %0 = load i32, ptr @trace_events_enabled_count, align 4
  %tobool.i.i = icmp ne i32 %0, 0
  %1 = load i16, ptr @_TRACE_ESP_PDMA_WRITE_DSTATE, align 2
  %tobool4.i.i = icmp ne i16 %1, 0
  %or.cond.i.i = select i1 %tobool.i.i, i1 %tobool4.i.i, i1 false
  br i1 %or.cond.i.i, label %land.lhs.true5.i.i, label %trace_esp_pdma_write.exit

land.lhs.true5.i.i:                               ; preds = %entry
  %2 = load i32, ptr @qemu_loglevel, align 4
  %and.i.i.i = and i32 %2, 32768
  %cmp.i.not.i.i = icmp eq i32 %and.i.i.i, 0
  br i1 %cmp.i.not.i.i, label %trace_esp_pdma_write.exit, label %if.then.i.i

if.then.i.i:                                      ; preds = %land.lhs.true5.i.i
  %3 = load i8, ptr @message_with_timestamp, align 1
  %tobool7.i.i = trunc i8 %3 to i1
  br i1 %tobool7.i.i, label %if.then8.i.i, label %if.else.i.i

if.then8.i.i:                                     ; preds = %if.then.i.i
  %call9.i.i = call i32 @gettimeofday(ptr noundef nonnull %_now.i.i, ptr noundef null) #10
  %call10.i.i = tail call i32 @qemu_get_thread_id() #10
  %4 = load i64, ptr %_now.i.i, align 8
  %tv_usec.i.i = getelementptr inbounds nuw i8, ptr %_now.i.i, i64 8
  %5 = load i64, ptr %tv_usec.i.i, align 8
  tail call void (ptr, ...) @qemu_log(ptr noundef nonnull @.str.117, i32 noundef %call10.i.i, i64 noundef %4, i64 noundef %5, i32 noundef %size) #10
  br label %trace_esp_pdma_write.exit

if.else.i.i:                                      ; preds = %if.then.i.i
  tail call void (ptr, ...) @qemu_log(ptr noundef nonnull @.str.118, i32 noundef %size) #10
  br label %trace_esp_pdma_write.exit

trace_esp_pdma_write.exit:                        ; preds = %entry, %land.lhs.true5.i.i, %if.then8.i.i, %if.else.i.i
  call void @llvm.lifetime.end.p0(i64 16, ptr nonnull %_now.i.i)
  switch i32 %size, label %sw.epilog [
    i32 1, label %sw.bb
    i32 2, label %sw.bb1
  ]

sw.bb:                                            ; preds = %trace_esp_pdma_write.exit
  %rregs.i.i = getelementptr inbounds nuw i8, ptr %call.i, i64 160
  %6 = load i16, ptr %rregs.i.i, align 8
  %7 = zext i16 %6 to i32
  %arrayidx5.i.i = getelementptr i8, ptr %call.i, i64 174
  %8 = load i8, ptr %arrayidx5.i.i, align 2
  %conv6.i.i = zext i8 %8 to i32
  %shl7.i.i = shl nuw nsw i32 %conv6.i.i, 16
  %or8.i.i = or disjoint i32 %shl7.i.i, %7
  %cmp.i = icmp eq i32 %or8.i.i, 0
  br i1 %cmp.i, label %sw.epilog, label %if.end.i

if.end.i:                                         ; preds = %sw.bb
  %conv = trunc i64 %val to i8
  %do_cmd.i = getelementptr inbounds nuw i8, ptr %call.i, i64 436
  %9 = load i32, ptr %do_cmd.i, align 4
  %tobool.not.i = icmp eq i32 %9, 0
  %..i = select i1 %tobool.not.i, i64 224, i64 408
  %fifo.i = getelementptr inbounds nuw i8, ptr %call.i, i64 %..i
  tail call fastcc void @esp_fifo_push(ptr noundef nonnull %fifo.i, i8 noundef zeroext %conv)
  %dec.i = add nsw i32 %or8.i.i, -1
  %conv.i.i = trunc i32 %dec.i to i8
  store i8 %conv.i.i, ptr %rregs.i.i, align 8
  %shr.i.i = lshr i32 %dec.i, 8
  %conv1.i.i = trunc i32 %shr.i.i to i8
  %arrayidx3.i.i = getelementptr i8, ptr %call.i, i64 161
  store i8 %conv1.i.i, ptr %arrayidx3.i.i, align 1
  %shr4.i.i = lshr i32 %dec.i, 16
  %conv5.i.i = trunc i32 %shr4.i.i to i8
  store i8 %conv5.i.i, ptr %arrayidx5.i.i, align 2
  br label %sw.epilog

sw.bb1:                                           ; preds = %trace_esp_pdma_write.exit
  %rregs.i.i7 = getelementptr inbounds nuw i8, ptr %call.i, i64 160
  %10 = load i16, ptr %rregs.i.i7, align 8
  %11 = zext i16 %10 to i32
  %arrayidx5.i.i8 = getelementptr i8, ptr %call.i, i64 174
  %12 = load i8, ptr %arrayidx5.i.i8, align 2
  %conv6.i.i9 = zext i8 %12 to i32
  %shl7.i.i10 = shl nuw nsw i32 %conv6.i.i9, 16
  %or8.i.i11 = or disjoint i32 %shl7.i.i10, %11
  %cmp.i12 = icmp eq i32 %or8.i.i11, 0
  br i1 %cmp.i12, label %sw.epilog, label %esp_pdma_write.exit25

esp_pdma_write.exit25:                            ; preds = %sw.bb1
  %shr = lshr i64 %val, 8
  %conv2 = trunc i64 %shr to i8
  %do_cmd.i14 = getelementptr inbounds nuw i8, ptr %call.i, i64 436
  %13 = load i32, ptr %do_cmd.i14, align 4
  %tobool.not.i15 = icmp eq i32 %13, 0
  %..i16 = select i1 %tobool.not.i15, i64 224, i64 408
  %fifo.i17 = getelementptr inbounds nuw i8, ptr %call.i, i64 %..i16
  tail call fastcc void @esp_fifo_push(ptr noundef nonnull %fifo.i17, i8 noundef zeroext %conv2)
  %dec.i18 = add nsw i32 %or8.i.i11, -1
  %conv.i.i19 = trunc i32 %dec.i18 to i8
  store i8 %conv.i.i19, ptr %rregs.i.i7, align 8
  %shr.i.i20 = lshr i32 %dec.i18, 8
  %conv1.i.i21 = trunc i32 %shr.i.i20 to i8
  %arrayidx3.i.i22 = getelementptr i8, ptr %call.i, i64 161
  store i8 %conv1.i.i21, ptr %arrayidx3.i.i22, align 1
  %shr4.i.i23 = lshr i32 %dec.i18, 16
  %conv5.i.i24 = trunc i32 %shr4.i.i23 to i8
  store i8 %conv5.i.i24, ptr %arrayidx5.i.i8, align 2
  %.pre = load i16, ptr %rregs.i.i7, align 8
  %.pre45 = zext i16 %.pre to i32
  %.pre47 = and i32 %dec.i18, 16711680
  %.pre48 = or disjoint i32 %.pre47, %.pre45
  %cmp.i31 = icmp eq i32 %.pre48, 0
  br i1 %cmp.i31, label %sw.epilog, label %if.end.i32

if.end.i32:                                       ; preds = %esp_pdma_write.exit25
  %conv3 = trunc i64 %val to i8
  %do_cmd.i33 = getelementptr inbounds nuw i8, ptr %call.i, i64 436
  %14 = load i32, ptr %do_cmd.i33, align 4
  %tobool.not.i34 = icmp eq i32 %14, 0
  %..i35 = select i1 %tobool.not.i34, i64 224, i64 408
  %fifo.i36 = getelementptr inbounds nuw i8, ptr %call.i, i64 %..i35
  tail call fastcc void @esp_fifo_push(ptr noundef nonnull %fifo.i36, i8 noundef zeroext %conv3)
  %dec.i37 = add nsw i32 %.pre48, -1
  %conv.i.i38 = trunc i32 %dec.i37 to i8
  store i8 %conv.i.i38, ptr %rregs.i.i7, align 8
  %shr.i.i39 = lshr i32 %dec.i37, 8
  %conv1.i.i40 = trunc i32 %shr.i.i39 to i8
  %arrayidx3.i.i41 = getelementptr i8, ptr %call.i, i64 161
  store i8 %conv1.i.i40, ptr %arrayidx3.i.i41, align 1
  %shr4.i.i42 = lshr i32 %dec.i37, 16
  %conv5.i.i43 = trunc i32 %shr4.i.i42 to i8
  store i8 %conv5.i.i43, ptr %arrayidx5.i.i8, align 2
  br label %sw.epilog

sw.epilog:                                        ; preds = %sw.bb1, %if.end.i32, %esp_pdma_write.exit25, %if.end.i, %sw.bb, %trace_esp_pdma_write.exit
  tail call fastcc void @esp_pdma_cb(ptr noundef %call.i)
  ret void
}